	.cpu cortex-m4
	.eabi_attribute 27, 1
	.eabi_attribute 28, 1
	.eabi_attribute 20, 1
	.eabi_attribute 21, 1
	.eabi_attribute 23, 3
	.eabi_attribute 24, 1
	.eabi_attribute 25, 1
	.eabi_attribute 26, 1
	.eabi_attribute 30, 6
	.eabi_attribute 34, 1
	.eabi_attribute 18, 4
	.file	"aes.c"
	.text
.Ltext0:
	.section	.rodata.sbox,"a"
	.align	2
	.type	sbox, %object
	.size	sbox, 256
sbox:
	.ascii	"c|w{\362ko\3050\001g+\376\327\253v\312\202\311}\372"
	.ascii	"YG\360\255\324\242\257\234\244r\300\267\375\223&6?\367"
	.ascii	"\3144\245\345\361q\3301\025\004\307#\303\030\226\005"
	.ascii	"\232\007\022\200\342\353'\262u\011\203,\032\033nZ\240"
	.ascii	"R;\326\263)\343/\204S\321\000\355 \374\261[j\313\276"
	.ascii	"9JLX\317\320\357\252\373CM3\205E\371\002\177P<\237\250"
	.ascii	"Q\243@\217\222\2358\365\274\266\332!\020\377\363\322"
	.ascii	"\315\014\023\354_\227D\027\304\247~=d]\031s`\201O\334"
	.ascii	"\"*\220\210F\356\270\024\336^\013\333\3402:\012I\006"
	.ascii	"$\\\302\323\254b\221\225\344y\347\3107m\215\325N\251"
	.ascii	"lV\364\352ez\256\010\272x%.\034\246\264\306\350\335"
	.ascii	"t\037K\275\213\212p>\265fH\003\366\016a5W\271\206\301"
	.ascii	"\035\236\341\370\230\021i\331\216\224\233\036\207\351"
	.ascii	"\316U(\337\214\241\211\015\277\346BhA\231-\017\260T"
	.ascii	"\273\026"
	.section	.rodata.gfm2_sbox,"a"
	.align	2
	.type	gfm2_sbox, %object
	.size	gfm2_sbox, 256
gfm2_sbox:
	.ascii	"\306\370\356\366\377\326\336\221`\002\316V\347\265M"
	.ascii	"\354\217\037\211\372\357\262\216\373A\263_E#S\344\233"
	.ascii	"u\341=Ll~\365\203hQ\321\371\342\253b*\010\225F\2350"
	.ascii	"7\012/\016$\033\337\315N\177\352\022\035X46\334\264"
	.ascii	"[\244v\267}R\335^\023\246\271\000\301@\343y\266\324"
	.ascii	"\215gr\224\230\260\205\273\305O\355\206\232f\021\212"
	.ascii	"\351\004\376\240x%K\242]\200\005?!p\361cw\257B \345"
	.ascii	"\375\277\201\030&\303\2765\210.\223U\374z\310\2722\346"
	.ascii	"\300\031\236\243DT;\013\214\307k(\247\274\026\255\333"
	.ascii	"dt\024\222\014H\270\237\275C\30491\323\362\325\213n"
	.ascii	"\332\001\261\234I\330\254\363\317\312\364G\020o\360"
	.ascii	"J\\8Ws\227\313\241\350>\226a\015\017\340|q\314\220\006"
	.ascii	"\367\034\302j\256i\027\231:'\331\353+\"\322\251\007"
	.ascii	"3-<\025\311\207\252P\245\003Y\011\032e\327\204\320\202"
	.ascii	")Z\036{\250m,"
	.section	.rodata.gfm3_sbox,"a"
	.align	2
	.type	gfm3_sbox, %object
	.size	gfm3_sbox, 256
gfm3_sbox:
	.ascii	"\245\204\231\215\015\275\261TP\003\251}\031b\346\232"
	.ascii	"E\235@\207\025\353\311\013\354g\375\352\277\367\226"
	.ascii	"[\302\034\256jZA\002O\\\3644\010\223sS?\014Re^(\241"
	.ascii	"\017\265\0116\233=&i\315\237\033\236t.-\262\356\373"
	.ascii	"\366Ma\316{>q\227\365h\000,`\037\310\355\276F\331K\336"
	.ascii	"\324\350Jk*\345\026\305\327U\224\317\020\006\201\360"
	.ascii	"D\272\343\363\376\300\212\255\274H\004\337\301uc0\032"
	.ascii	"\016mL\0245/\341\242\3149W\362\202G\254\347+\225\240"
	.ascii	"\230\321\177f~\253\203\312)\323<y\342\035v;VN\036\333"
	.ascii	"\012l\344]n\357\246\250\2447\2132CY\267\214d\322\340"
	.ascii	"\264\372\007%\257\216\351\030\325\210or$\361\307Q#|"
	.ascii	"\234!\335\334\206\205\220B\304\252\330\005\001\022\243"
	.ascii	"_\371\320\221X'\2718\023\2633\273p\211\247\266\"\222"
	.ascii	" I\377xz\217\370\200\027\3321\306\270\303\260w\021\313"
	.ascii	"\374\326:"
	.section	.text.copy_block,"ax",%progbits
	.align	1
	.syntax unified
	.thumb
	.thumb_func
	.fpu fpv4-sp-d16
	.type	copy_block, %function
copy_block:
.LFB0:
	.file 1 "D:\\Low-Power-IPS-Hardware\\BLE-Projects\\BLE_Scanner\\LoRa_Lib\\crypto\\aes.c"
	.loc 1 315 1
	@ args = 0, pretend = 0, frame = 8
	@ frame_needed = 0, uses_anonymous_args = 0
	@ link register save eliminated.
	sub	sp, sp, #8
.LCFI0:
	str	r0, [sp, #4]
	str	r1, [sp]
	.loc 1 322 38
	ldr	r3, [sp]
	ldrb	r2, [r3]	@ zero_extendqisi2
	.loc 1 322 23
	ldr	r3, [sp, #4]
	strb	r2, [r3]
	.loc 1 323 18
	ldr	r3, [sp, #4]
	adds	r3, r3, #1
	.loc 1 323 23
	ldr	r2, [sp]
	ldrb	r2, [r2, #1]	@ zero_extendqisi2
	strb	r2, [r3]
	.loc 1 324 18
	ldr	r3, [sp, #4]
	adds	r3, r3, #2
	.loc 1 324 23
	ldr	r2, [sp]
	ldrb	r2, [r2, #2]	@ zero_extendqisi2
	strb	r2, [r3]
	.loc 1 325 18
	ldr	r3, [sp, #4]
	adds	r3, r3, #3
	.loc 1 325 23
	ldr	r2, [sp]
	ldrb	r2, [r2, #3]	@ zero_extendqisi2
	strb	r2, [r3]
	.loc 1 326 18
	ldr	r3, [sp, #4]
	adds	r3, r3, #4
	.loc 1 326 23
	ldr	r2, [sp]
	ldrb	r2, [r2, #4]	@ zero_extendqisi2
	strb	r2, [r3]
	.loc 1 327 18
	ldr	r3, [sp, #4]
	adds	r3, r3, #5
	.loc 1 327 23
	ldr	r2, [sp]
	ldrb	r2, [r2, #5]	@ zero_extendqisi2
	strb	r2, [r3]
	.loc 1 328 18
	ldr	r3, [sp, #4]
	adds	r3, r3, #6
	.loc 1 328 23
	ldr	r2, [sp]
	ldrb	r2, [r2, #6]	@ zero_extendqisi2
	strb	r2, [r3]
	.loc 1 329 18
	ldr	r3, [sp, #4]
	adds	r3, r3, #7
	.loc 1 329 23
	ldr	r2, [sp]
	ldrb	r2, [r2, #7]	@ zero_extendqisi2
	strb	r2, [r3]
	.loc 1 330 18
	ldr	r3, [sp, #4]
	adds	r3, r3, #8
	.loc 1 330 23
	ldr	r2, [sp]
	ldrb	r2, [r2, #8]	@ zero_extendqisi2
	strb	r2, [r3]
	.loc 1 331 18
	ldr	r3, [sp, #4]
	adds	r3, r3, #9
	.loc 1 331 23
	ldr	r2, [sp]
	ldrb	r2, [r2, #9]	@ zero_extendqisi2
	strb	r2, [r3]
	.loc 1 332 18
	ldr	r3, [sp, #4]
	adds	r3, r3, #10
	.loc 1 332 23
	ldr	r2, [sp]
	ldrb	r2, [r2, #10]	@ zero_extendqisi2
	strb	r2, [r3]
	.loc 1 333 18
	ldr	r3, [sp, #4]
	adds	r3, r3, #11
	.loc 1 333 23
	ldr	r2, [sp]
	ldrb	r2, [r2, #11]	@ zero_extendqisi2
	strb	r2, [r3]
	.loc 1 334 18
	ldr	r3, [sp, #4]
	adds	r3, r3, #12
	.loc 1 334 23
	ldr	r2, [sp]
	ldrb	r2, [r2, #12]	@ zero_extendqisi2
	strb	r2, [r3]
	.loc 1 335 18
	ldr	r3, [sp, #4]
	adds	r3, r3, #13
	.loc 1 335 23
	ldr	r2, [sp]
	ldrb	r2, [r2, #13]	@ zero_extendqisi2
	strb	r2, [r3]
	.loc 1 336 18
	ldr	r3, [sp, #4]
	adds	r3, r3, #14
	.loc 1 336 23
	ldr	r2, [sp]
	ldrb	r2, [r2, #14]	@ zero_extendqisi2
	strb	r2, [r3]
	.loc 1 337 18
	ldr	r3, [sp, #4]
	adds	r3, r3, #15
	.loc 1 337 23
	ldr	r2, [sp]
	ldrb	r2, [r2, #15]	@ zero_extendqisi2
	strb	r2, [r3]
	.loc 1 339 1
	nop
	add	sp, sp, #8
.LCFI1:
	@ sp needed
	bx	lr
.LFE0:
	.size	copy_block, .-copy_block
	.section	.text.copy_block_nn,"ax",%progbits
	.align	1
	.syntax unified
	.thumb
	.thumb_func
	.fpu fpv4-sp-d16
	.type	copy_block_nn, %function
copy_block_nn:
.LFB1:
	.loc 1 342 1
	@ args = 0, pretend = 0, frame = 16
	@ frame_needed = 0, uses_anonymous_args = 0
	@ link register save eliminated.
	sub	sp, sp, #16
.LCFI2:
	str	r0, [sp, #12]
	str	r1, [sp, #8]
	mov	r3, r2
	strb	r3, [sp, #7]
	.loc 1 343 10
	b	.L3
.L4:
	.loc 1 345 18
	ldr	r2, [sp, #8]
	adds	r3, r2, #1
	str	r3, [sp, #8]
	.loc 1 345 11
	ldr	r3, [sp, #12]
	adds	r1, r3, #1
	str	r1, [sp, #12]
	.loc 1 345 16
	ldrb	r2, [r2]	@ zero_extendqisi2
	.loc 1 345 14
	strb	r2, [r3]
.L3:
	.loc 1 343 14
	ldrb	r3, [sp, #7]	@ zero_extendqisi2
	subs	r2, r3, #1
	strb	r2, [sp, #7]
	.loc 1 343 10
	cmp	r3, #0
	bne	.L4
	.loc 1 346 1
	nop
	nop
	add	sp, sp, #16
.LCFI3:
	@ sp needed
	bx	lr
.LFE1:
	.size	copy_block_nn, .-copy_block_nn
	.section	.text.xor_block,"ax",%progbits
	.align	1
	.syntax unified
	.thumb
	.thumb_func
	.fpu fpv4-sp-d16
	.type	xor_block, %function
xor_block:
.LFB2:
	.loc 1 349 1
	@ args = 0, pretend = 0, frame = 8
	@ frame_needed = 0, uses_anonymous_args = 0
	@ link register save eliminated.
	sub	sp, sp, #8
.LCFI4:
	str	r0, [sp, #4]
	str	r1, [sp]
	.loc 1 356 23
	ldr	r3, [sp, #4]
	ldrb	r2, [r3]	@ zero_extendqisi2
	.loc 1 356 39
	ldr	r3, [sp]
	ldrb	r3, [r3]	@ zero_extendqisi2
	.loc 1 356 23
	eors	r3, r3, r2
	uxtb	r2, r3
	ldr	r3, [sp, #4]
	strb	r2, [r3]
	.loc 1 357 23
	ldr	r3, [sp, #4]
	adds	r3, r3, #1
	ldrb	r1, [r3]	@ zero_extendqisi2
	.loc 1 357 39
	ldr	r3, [sp]
	adds	r3, r3, #1
	ldrb	r2, [r3]	@ zero_extendqisi2
	.loc 1 357 23
	ldr	r3, [sp, #4]
	adds	r3, r3, #1
	eors	r2, r2, r1
	uxtb	r2, r2
	strb	r2, [r3]
	.loc 1 358 23
	ldr	r3, [sp, #4]
	adds	r3, r3, #2
	ldrb	r1, [r3]	@ zero_extendqisi2
	.loc 1 358 39
	ldr	r3, [sp]
	adds	r3, r3, #2
	ldrb	r2, [r3]	@ zero_extendqisi2
	.loc 1 358 23
	ldr	r3, [sp, #4]
	adds	r3, r3, #2
	eors	r2, r2, r1
	uxtb	r2, r2
	strb	r2, [r3]
	.loc 1 359 23
	ldr	r3, [sp, #4]
	adds	r3, r3, #3
	ldrb	r1, [r3]	@ zero_extendqisi2
	.loc 1 359 39
	ldr	r3, [sp]
	adds	r3, r3, #3
	ldrb	r2, [r3]	@ zero_extendqisi2
	.loc 1 359 23
	ldr	r3, [sp, #4]
	adds	r3, r3, #3
	eors	r2, r2, r1
	uxtb	r2, r2
	strb	r2, [r3]
	.loc 1 360 23
	ldr	r3, [sp, #4]
	adds	r3, r3, #4
	ldrb	r1, [r3]	@ zero_extendqisi2
	.loc 1 360 39
	ldr	r3, [sp]
	adds	r3, r3, #4
	ldrb	r2, [r3]	@ zero_extendqisi2
	.loc 1 360 23
	ldr	r3, [sp, #4]
	adds	r3, r3, #4
	eors	r2, r2, r1
	uxtb	r2, r2
	strb	r2, [r3]
	.loc 1 361 23
	ldr	r3, [sp, #4]
	adds	r3, r3, #5
	ldrb	r1, [r3]	@ zero_extendqisi2
	.loc 1 361 39
	ldr	r3, [sp]
	adds	r3, r3, #5
	ldrb	r2, [r3]	@ zero_extendqisi2
	.loc 1 361 23
	ldr	r3, [sp, #4]
	adds	r3, r3, #5
	eors	r2, r2, r1
	uxtb	r2, r2
	strb	r2, [r3]
	.loc 1 362 23
	ldr	r3, [sp, #4]
	adds	r3, r3, #6
	ldrb	r1, [r3]	@ zero_extendqisi2
	.loc 1 362 39
	ldr	r3, [sp]
	adds	r3, r3, #6
	ldrb	r2, [r3]	@ zero_extendqisi2
	.loc 1 362 23
	ldr	r3, [sp, #4]
	adds	r3, r3, #6
	eors	r2, r2, r1
	uxtb	r2, r2
	strb	r2, [r3]
	.loc 1 363 23
	ldr	r3, [sp, #4]
	adds	r3, r3, #7
	ldrb	r1, [r3]	@ zero_extendqisi2
	.loc 1 363 39
	ldr	r3, [sp]
	adds	r3, r3, #7
	ldrb	r2, [r3]	@ zero_extendqisi2
	.loc 1 363 23
	ldr	r3, [sp, #4]
	adds	r3, r3, #7
	eors	r2, r2, r1
	uxtb	r2, r2
	strb	r2, [r3]
	.loc 1 364 23
	ldr	r3, [sp, #4]
	adds	r3, r3, #8
	ldrb	r1, [r3]	@ zero_extendqisi2
	.loc 1 364 39
	ldr	r3, [sp]
	adds	r3, r3, #8
	ldrb	r2, [r3]	@ zero_extendqisi2
	.loc 1 364 23
	ldr	r3, [sp, #4]
	adds	r3, r3, #8
	eors	r2, r2, r1
	uxtb	r2, r2
	strb	r2, [r3]
	.loc 1 365 23
	ldr	r3, [sp, #4]
	adds	r3, r3, #9
	ldrb	r1, [r3]	@ zero_extendqisi2
	.loc 1 365 39
	ldr	r3, [sp]
	adds	r3, r3, #9
	ldrb	r2, [r3]	@ zero_extendqisi2
	.loc 1 365 23
	ldr	r3, [sp, #4]
	adds	r3, r3, #9
	eors	r2, r2, r1
	uxtb	r2, r2
	strb	r2, [r3]
	.loc 1 366 23
	ldr	r3, [sp, #4]
	adds	r3, r3, #10
	ldrb	r1, [r3]	@ zero_extendqisi2
	.loc 1 366 39
	ldr	r3, [sp]
	adds	r3, r3, #10
	ldrb	r2, [r3]	@ zero_extendqisi2
	.loc 1 366 23
	ldr	r3, [sp, #4]
	adds	r3, r3, #10
	eors	r2, r2, r1
	uxtb	r2, r2
	strb	r2, [r3]
	.loc 1 367 23
	ldr	r3, [sp, #4]
	adds	r3, r3, #11
	ldrb	r1, [r3]	@ zero_extendqisi2
	.loc 1 367 39
	ldr	r3, [sp]
	adds	r3, r3, #11
	ldrb	r2, [r3]	@ zero_extendqisi2
	.loc 1 367 23
	ldr	r3, [sp, #4]
	adds	r3, r3, #11
	eors	r2, r2, r1
	uxtb	r2, r2
	strb	r2, [r3]
	.loc 1 368 23
	ldr	r3, [sp, #4]
	adds	r3, r3, #12
	ldrb	r1, [r3]	@ zero_extendqisi2
	.loc 1 368 39
	ldr	r3, [sp]
	adds	r3, r3, #12
	ldrb	r2, [r3]	@ zero_extendqisi2
	.loc 1 368 23
	ldr	r3, [sp, #4]
	adds	r3, r3, #12
	eors	r2, r2, r1
	uxtb	r2, r2
	strb	r2, [r3]
	.loc 1 369 23
	ldr	r3, [sp, #4]
	adds	r3, r3, #13
	ldrb	r1, [r3]	@ zero_extendqisi2
	.loc 1 369 39
	ldr	r3, [sp]
	adds	r3, r3, #13
	ldrb	r2, [r3]	@ zero_extendqisi2
	.loc 1 369 23
	ldr	r3, [sp, #4]
	adds	r3, r3, #13
	eors	r2, r2, r1
	uxtb	r2, r2
	strb	r2, [r3]
	.loc 1 370 23
	ldr	r3, [sp, #4]
	adds	r3, r3, #14
	ldrb	r1, [r3]	@ zero_extendqisi2
	.loc 1 370 39
	ldr	r3, [sp]
	adds	r3, r3, #14
	ldrb	r2, [r3]	@ zero_extendqisi2
	.loc 1 370 23
	ldr	r3, [sp, #4]
	adds	r3, r3, #14
	eors	r2, r2, r1
	uxtb	r2, r2
	strb	r2, [r3]
	.loc 1 371 23
	ldr	r3, [sp, #4]
	adds	r3, r3, #15
	ldrb	r1, [r3]	@ zero_extendqisi2
	.loc 1 371 39
	ldr	r3, [sp]
	adds	r3, r3, #15
	ldrb	r2, [r3]	@ zero_extendqisi2
	.loc 1 371 23
	ldr	r3, [sp, #4]
	adds	r3, r3, #15
	eors	r2, r2, r1
	uxtb	r2, r2
	strb	r2, [r3]
	.loc 1 373 1
	nop
	add	sp, sp, #8
.LCFI5:
	@ sp needed
	bx	lr
.LFE2:
	.size	xor_block, .-xor_block
	.section	.text.copy_and_key,"ax",%progbits
	.align	1
	.syntax unified
	.thumb
	.thumb_func
	.fpu fpv4-sp-d16
	.type	copy_and_key, %function
copy_and_key:
.LFB3:
	.loc 1 376 1
	@ args = 0, pretend = 0, frame = 16
	@ frame_needed = 0, uses_anonymous_args = 0
	@ link register save eliminated.
	sub	sp, sp, #16
.LCFI6:
	str	r0, [sp, #12]
	str	r1, [sp, #8]
	str	r2, [sp, #4]
	.loc 1 383 38
	ldr	r3, [sp, #8]
	ldrb	r2, [r3]	@ zero_extendqisi2
	.loc 1 383 58
	ldr	r3, [sp, #4]
	ldrb	r3, [r3]	@ zero_extendqisi2
	.loc 1 383 23
	eors	r3, r3, r2
	uxtb	r2, r3
	ldr	r3, [sp, #12]
	strb	r2, [r3]
	.loc 1 384 38
	ldr	r3, [sp, #8]
	adds	r3, r3, #1
	ldrb	r1, [r3]	@ zero_extendqisi2
	.loc 1 384 58
	ldr	r3, [sp, #4]
	adds	r3, r3, #1
	ldrb	r2, [r3]	@ zero_extendqisi2
	.loc 1 384 18
	ldr	r3, [sp, #12]
	adds	r3, r3, #1
	.loc 1 384 23
	eors	r2, r2, r1
	uxtb	r2, r2
	strb	r2, [r3]
	.loc 1 385 38
	ldr	r3, [sp, #8]
	adds	r3, r3, #2
	ldrb	r1, [r3]	@ zero_extendqisi2
	.loc 1 385 58
	ldr	r3, [sp, #4]
	adds	r3, r3, #2
	ldrb	r2, [r3]	@ zero_extendqisi2
	.loc 1 385 18
	ldr	r3, [sp, #12]
	adds	r3, r3, #2
	.loc 1 385 23
	eors	r2, r2, r1
	uxtb	r2, r2
	strb	r2, [r3]
	.loc 1 386 38
	ldr	r3, [sp, #8]
	adds	r3, r3, #3
	ldrb	r1, [r3]	@ zero_extendqisi2
	.loc 1 386 58
	ldr	r3, [sp, #4]
	adds	r3, r3, #3
	ldrb	r2, [r3]	@ zero_extendqisi2
	.loc 1 386 18
	ldr	r3, [sp, #12]
	adds	r3, r3, #3
	.loc 1 386 23
	eors	r2, r2, r1
	uxtb	r2, r2
	strb	r2, [r3]
	.loc 1 387 38
	ldr	r3, [sp, #8]
	adds	r3, r3, #4
	ldrb	r1, [r3]	@ zero_extendqisi2
	.loc 1 387 58
	ldr	r3, [sp, #4]
	adds	r3, r3, #4
	ldrb	r2, [r3]	@ zero_extendqisi2
	.loc 1 387 18
	ldr	r3, [sp, #12]
	adds	r3, r3, #4
	.loc 1 387 23
	eors	r2, r2, r1
	uxtb	r2, r2
	strb	r2, [r3]
	.loc 1 388 38
	ldr	r3, [sp, #8]
	adds	r3, r3, #5
	ldrb	r1, [r3]	@ zero_extendqisi2
	.loc 1 388 58
	ldr	r3, [sp, #4]
	adds	r3, r3, #5
	ldrb	r2, [r3]	@ zero_extendqisi2
	.loc 1 388 18
	ldr	r3, [sp, #12]
	adds	r3, r3, #5
	.loc 1 388 23
	eors	r2, r2, r1
	uxtb	r2, r2
	strb	r2, [r3]
	.loc 1 389 38
	ldr	r3, [sp, #8]
	adds	r3, r3, #6
	ldrb	r1, [r3]	@ zero_extendqisi2
	.loc 1 389 58
	ldr	r3, [sp, #4]
	adds	r3, r3, #6
	ldrb	r2, [r3]	@ zero_extendqisi2
	.loc 1 389 18
	ldr	r3, [sp, #12]
	adds	r3, r3, #6
	.loc 1 389 23
	eors	r2, r2, r1
	uxtb	r2, r2
	strb	r2, [r3]
	.loc 1 390 38
	ldr	r3, [sp, #8]
	adds	r3, r3, #7
	ldrb	r1, [r3]	@ zero_extendqisi2
	.loc 1 390 58
	ldr	r3, [sp, #4]
	adds	r3, r3, #7
	ldrb	r2, [r3]	@ zero_extendqisi2
	.loc 1 390 18
	ldr	r3, [sp, #12]
	adds	r3, r3, #7
	.loc 1 390 23
	eors	r2, r2, r1
	uxtb	r2, r2
	strb	r2, [r3]
	.loc 1 391 38
	ldr	r3, [sp, #8]
	adds	r3, r3, #8
	ldrb	r1, [r3]	@ zero_extendqisi2
	.loc 1 391 58
	ldr	r3, [sp, #4]
	adds	r3, r3, #8
	ldrb	r2, [r3]	@ zero_extendqisi2
	.loc 1 391 18
	ldr	r3, [sp, #12]
	adds	r3, r3, #8
	.loc 1 391 23
	eors	r2, r2, r1
	uxtb	r2, r2
	strb	r2, [r3]
	.loc 1 392 38
	ldr	r3, [sp, #8]
	adds	r3, r3, #9
	ldrb	r1, [r3]	@ zero_extendqisi2
	.loc 1 392 58
	ldr	r3, [sp, #4]
	adds	r3, r3, #9
	ldrb	r2, [r3]	@ zero_extendqisi2
	.loc 1 392 18
	ldr	r3, [sp, #12]
	adds	r3, r3, #9
	.loc 1 392 23
	eors	r2, r2, r1
	uxtb	r2, r2
	strb	r2, [r3]
	.loc 1 393 38
	ldr	r3, [sp, #8]
	adds	r3, r3, #10
	ldrb	r1, [r3]	@ zero_extendqisi2
	.loc 1 393 58
	ldr	r3, [sp, #4]
	adds	r3, r3, #10
	ldrb	r2, [r3]	@ zero_extendqisi2
	.loc 1 393 18
	ldr	r3, [sp, #12]
	adds	r3, r3, #10
	.loc 1 393 23
	eors	r2, r2, r1
	uxtb	r2, r2
	strb	r2, [r3]
	.loc 1 394 38
	ldr	r3, [sp, #8]
	adds	r3, r3, #11
	ldrb	r1, [r3]	@ zero_extendqisi2
	.loc 1 394 58
	ldr	r3, [sp, #4]
	adds	r3, r3, #11
	ldrb	r2, [r3]	@ zero_extendqisi2
	.loc 1 394 18
	ldr	r3, [sp, #12]
	adds	r3, r3, #11
	.loc 1 394 23
	eors	r2, r2, r1
	uxtb	r2, r2
	strb	r2, [r3]
	.loc 1 395 38
	ldr	r3, [sp, #8]
	adds	r3, r3, #12
	ldrb	r1, [r3]	@ zero_extendqisi2
	.loc 1 395 58
	ldr	r3, [sp, #4]
	adds	r3, r3, #12
	ldrb	r2, [r3]	@ zero_extendqisi2
	.loc 1 395 18
	ldr	r3, [sp, #12]
	adds	r3, r3, #12
	.loc 1 395 23
	eors	r2, r2, r1
	uxtb	r2, r2
	strb	r2, [r3]
	.loc 1 396 38
	ldr	r3, [sp, #8]
	adds	r3, r3, #13
	ldrb	r1, [r3]	@ zero_extendqisi2
	.loc 1 396 58
	ldr	r3, [sp, #4]
	adds	r3, r3, #13
	ldrb	r2, [r3]	@ zero_extendqisi2
	.loc 1 396 18
	ldr	r3, [sp, #12]
	adds	r3, r3, #13
	.loc 1 396 23
	eors	r2, r2, r1
	uxtb	r2, r2
	strb	r2, [r3]
	.loc 1 397 38
	ldr	r3, [sp, #8]
	adds	r3, r3, #14
	ldrb	r1, [r3]	@ zero_extendqisi2
	.loc 1 397 58
	ldr	r3, [sp, #4]
	adds	r3, r3, #14
	ldrb	r2, [r3]	@ zero_extendqisi2
	.loc 1 397 18
	ldr	r3, [sp, #12]
	adds	r3, r3, #14
	.loc 1 397 23
	eors	r2, r2, r1
	uxtb	r2, r2
	strb	r2, [r3]
	.loc 1 398 38
	ldr	r3, [sp, #8]
	adds	r3, r3, #15
	ldrb	r1, [r3]	@ zero_extendqisi2
	.loc 1 398 58
	ldr	r3, [sp, #4]
	adds	r3, r3, #15
	ldrb	r2, [r3]	@ zero_extendqisi2
	.loc 1 398 18
	ldr	r3, [sp, #12]
	adds	r3, r3, #15
	.loc 1 398 23
	eors	r2, r2, r1
	uxtb	r2, r2
	strb	r2, [r3]
	.loc 1 403 1
	nop
	add	sp, sp, #16
.LCFI7:
	@ sp needed
	bx	lr
.LFE3:
	.size	copy_and_key, .-copy_and_key
	.section	.text.add_round_key,"ax",%progbits
	.align	1
	.syntax unified
	.thumb
	.thumb_func
	.fpu fpv4-sp-d16
	.type	add_round_key, %function
add_round_key:
.LFB4:
	.loc 1 406 1
	@ args = 0, pretend = 0, frame = 8
	@ frame_needed = 0, uses_anonymous_args = 0
	push	{lr}
.LCFI8:
	sub	sp, sp, #12
.LCFI9:
	str	r0, [sp, #4]
	str	r1, [sp]
	.loc 1 407 5
	ldr	r1, [sp]
	ldr	r0, [sp, #4]
	bl	xor_block
	.loc 1 408 1
	nop
	add	sp, sp, #12
.LCFI10:
	@ sp needed
	ldr	pc, [sp], #4
.LFE4:
	.size	add_round_key, .-add_round_key
	.section	.text.shift_sub_rows,"ax",%progbits
	.align	1
	.syntax unified
	.thumb
	.thumb_func
	.fpu fpv4-sp-d16
	.type	shift_sub_rows, %function
shift_sub_rows:
.LFB5:
	.loc 1 411 1
	@ args = 0, pretend = 0, frame = 16
	@ frame_needed = 0, uses_anonymous_args = 0
	@ link register save eliminated.
	sub	sp, sp, #16
.LCFI11:
	str	r0, [sp, #4]
	.loc 1 413 14
	ldr	r3, [sp, #4]
	ldrb	r3, [r3]	@ zero_extendqisi2
	mov	r2, r3
	ldr	r3, .L9
	ldrb	r2, [r3, r2]	@ zero_extendqisi2
	.loc 1 413 12
	ldr	r3, [sp, #4]
	strb	r2, [r3]
	.loc 1 413 38
	ldr	r3, [sp, #4]
	adds	r3, r3, #4
	ldrb	r3, [r3]	@ zero_extendqisi2
	mov	r1, r3
	.loc 1 413 31
	ldr	r3, [sp, #4]
	adds	r3, r3, #4
	.loc 1 413 38
	ldr	r2, .L9
	ldrb	r2, [r2, r1]	@ zero_extendqisi2
	.loc 1 413 36
	strb	r2, [r3]
	.loc 1 414 14
	ldr	r3, [sp, #4]
	adds	r3, r3, #8
	ldrb	r3, [r3]	@ zero_extendqisi2
	mov	r1, r3
	.loc 1 414 7
	ldr	r3, [sp, #4]
	adds	r3, r3, #8
	.loc 1 414 14
	ldr	r2, .L9
	ldrb	r2, [r2, r1]	@ zero_extendqisi2
	.loc 1 414 12
	strb	r2, [r3]
	.loc 1 414 38
	ldr	r3, [sp, #4]
	adds	r3, r3, #12
	ldrb	r3, [r3]	@ zero_extendqisi2
	mov	r1, r3
	.loc 1 414 31
	ldr	r3, [sp, #4]
	adds	r3, r3, #12
	.loc 1 414 38
	ldr	r2, .L9
	ldrb	r2, [r2, r1]	@ zero_extendqisi2
	.loc 1 414 36
	strb	r2, [r3]
	.loc 1 416 8
	ldr	r3, [sp, #4]
	ldrb	r3, [r3, #1]
	strb	r3, [sp, #15]
	.loc 1 416 26
	ldr	r3, [sp, #4]
	adds	r3, r3, #5
	ldrb	r3, [r3]	@ zero_extendqisi2
	mov	r1, r3
	.loc 1 416 19
	ldr	r3, [sp, #4]
	adds	r3, r3, #1
	.loc 1 416 26
	ldr	r2, .L9
	ldrb	r2, [r2, r1]	@ zero_extendqisi2
	.loc 1 416 24
	strb	r2, [r3]
	.loc 1 416 50
	ldr	r3, [sp, #4]
	adds	r3, r3, #9
	ldrb	r3, [r3]	@ zero_extendqisi2
	mov	r1, r3
	.loc 1 416 43
	ldr	r3, [sp, #4]
	adds	r3, r3, #5
	.loc 1 416 50
	ldr	r2, .L9
	ldrb	r2, [r2, r1]	@ zero_extendqisi2
	.loc 1 416 48
	strb	r2, [r3]
	.loc 1 417 14
	ldr	r3, [sp, #4]
	adds	r3, r3, #13
	ldrb	r3, [r3]	@ zero_extendqisi2
	mov	r1, r3
	.loc 1 417 7
	ldr	r3, [sp, #4]
	adds	r3, r3, #9
	.loc 1 417 14
	ldr	r2, .L9
	ldrb	r2, [r2, r1]	@ zero_extendqisi2
	.loc 1 417 12
	strb	r2, [r3]
	.loc 1 417 38
	ldrb	r2, [sp, #15]	@ zero_extendqisi2
	.loc 1 417 31
	ldr	r3, [sp, #4]
	adds	r3, r3, #13
	.loc 1 417 38
	ldr	r1, .L9
	ldrb	r2, [r1, r2]	@ zero_extendqisi2
	.loc 1 417 36
	strb	r2, [r3]
	.loc 1 419 8
	ldr	r3, [sp, #4]
	ldrb	r3, [r3, #2]
	strb	r3, [sp, #15]
	.loc 1 419 26
	ldr	r3, [sp, #4]
	adds	r3, r3, #10
	ldrb	r3, [r3]	@ zero_extendqisi2
	mov	r1, r3
	.loc 1 419 19
	ldr	r3, [sp, #4]
	adds	r3, r3, #2
	.loc 1 419 26
	ldr	r2, .L9
	ldrb	r2, [r2, r1]	@ zero_extendqisi2
	.loc 1 419 24
	strb	r2, [r3]
	.loc 1 419 50
	ldrb	r2, [sp, #15]	@ zero_extendqisi2
	.loc 1 419 43
	ldr	r3, [sp, #4]
	adds	r3, r3, #10
	.loc 1 419 50
	ldr	r1, .L9
	ldrb	r2, [r1, r2]	@ zero_extendqisi2
	.loc 1 419 48
	strb	r2, [r3]
	.loc 1 420 8
	ldr	r3, [sp, #4]
	ldrb	r3, [r3, #6]
	strb	r3, [sp, #15]
	.loc 1 420 26
	ldr	r3, [sp, #4]
	adds	r3, r3, #14
	ldrb	r3, [r3]	@ zero_extendqisi2
	mov	r1, r3
	.loc 1 420 19
	ldr	r3, [sp, #4]
	adds	r3, r3, #6
	.loc 1 420 26
	ldr	r2, .L9
	ldrb	r2, [r2, r1]	@ zero_extendqisi2
	.loc 1 420 24
	strb	r2, [r3]
	.loc 1 420 50
	ldrb	r2, [sp, #15]	@ zero_extendqisi2
	.loc 1 420 43
	ldr	r3, [sp, #4]
	adds	r3, r3, #14
	.loc 1 420 50
	ldr	r1, .L9
	ldrb	r2, [r1, r2]	@ zero_extendqisi2
	.loc 1 420 48
	strb	r2, [r3]
	.loc 1 422 8
	ldr	r3, [sp, #4]
	ldrb	r3, [r3, #15]
	strb	r3, [sp, #15]
	.loc 1 422 27
	ldr	r3, [sp, #4]
	adds	r3, r3, #11
	ldrb	r3, [r3]	@ zero_extendqisi2
	mov	r1, r3
	.loc 1 422 20
	ldr	r3, [sp, #4]
	adds	r3, r3, #15
	.loc 1 422 27
	ldr	r2, .L9
	ldrb	r2, [r2, r1]	@ zero_extendqisi2
	.loc 1 422 25
	strb	r2, [r3]
	.loc 1 422 51
	ldr	r3, [sp, #4]
	adds	r3, r3, #7
	ldrb	r3, [r3]	@ zero_extendqisi2
	mov	r1, r3
	.loc 1 422 44
	ldr	r3, [sp, #4]
	adds	r3, r3, #11
	.loc 1 422 51
	ldr	r2, .L9
	ldrb	r2, [r2, r1]	@ zero_extendqisi2
	.loc 1 422 49
	strb	r2, [r3]
	.loc 1 423 14
	ldr	r3, [sp, #4]
	adds	r3, r3, #3
	ldrb	r3, [r3]	@ zero_extendqisi2
	mov	r1, r3
	.loc 1 423 7
	ldr	r3, [sp, #4]
	adds	r3, r3, #7
	.loc 1 423 14
	ldr	r2, .L9
	ldrb	r2, [r2, r1]	@ zero_extendqisi2
	.loc 1 423 12
	strb	r2, [r3]
	.loc 1 423 38
	ldrb	r2, [sp, #15]	@ zero_extendqisi2
	.loc 1 423 31
	ldr	r3, [sp, #4]
	adds	r3, r3, #3
	.loc 1 423 38
	ldr	r1, .L9
	ldrb	r2, [r1, r2]	@ zero_extendqisi2
	.loc 1 423 36
	strb	r2, [r3]
	.loc 1 424 1
	nop
	add	sp, sp, #16
.LCFI12:
	@ sp needed
	bx	lr
.L10:
	.align	2
.L9:
	.word	sbox
.LFE5:
	.size	shift_sub_rows, .-shift_sub_rows
	.section	.text.mix_sub_columns,"ax",%progbits
	.align	1
	.syntax unified
	.thumb
	.thumb_func
	.fpu fpv4-sp-d16
	.type	mix_sub_columns, %function
mix_sub_columns:
.LFB6:
	.loc 1 448 3
	@ args = 0, pretend = 0, frame = 24
	@ frame_needed = 0, uses_anonymous_args = 0
	push	{lr}
.LCFI13:
	sub	sp, sp, #28
.LCFI14:
	str	r0, [sp, #4]
	.loc 1 449 5
	add	r3, sp, #8
	ldr	r1, [sp, #4]
	mov	r0, r3
	bl	copy_block
	.loc 1 454 14
	ldrb	r3, [sp, #8]	@ zero_extendqisi2
	mov	r2, r3
	ldr	r3, .L12
	ldrb	r2, [r3, r2]	@ zero_extendqisi2
	.loc 1 454 31
	ldrb	r3, [sp, #13]	@ zero_extendqisi2
	mov	r1, r3
	ldr	r3, .L12+4
	ldrb	r3, [r3, r1]	@ zero_extendqisi2
	.loc 1 454 12
	eors	r3, r3, r2
	uxtb	r2, r3
	.loc 1 454 48
	ldrb	r3, [sp, #18]	@ zero_extendqisi2
	mov	r1, r3
	ldr	r3, .L12+8
	ldrb	r3, [r3, r1]	@ zero_extendqisi2
	.loc 1 454 12
	eors	r3, r3, r2
	uxtb	r2, r3
	.loc 1 454 64
	ldrb	r3, [sp, #23]	@ zero_extendqisi2
	mov	r1, r3
	ldr	r3, .L12+8
	ldrb	r3, [r3, r1]	@ zero_extendqisi2
	.loc 1 454 12
	eors	r3, r3, r2
	uxtb	r2, r3
	ldr	r3, [sp, #4]
	strb	r2, [r3]
	.loc 1 455 14
	ldrb	r3, [sp, #8]	@ zero_extendqisi2
	mov	r2, r3
	ldr	r3, .L12+8
	ldrb	r2, [r3, r2]	@ zero_extendqisi2
	.loc 1 455 29
	ldrb	r3, [sp, #13]	@ zero_extendqisi2
	mov	r1, r3
	ldr	r3, .L12
	ldrb	r3, [r3, r1]	@ zero_extendqisi2
	.loc 1 455 12
	eors	r3, r3, r2
	uxtb	r2, r3
	.loc 1 455 46
	ldrb	r3, [sp, #18]	@ zero_extendqisi2
	mov	r1, r3
	ldr	r3, .L12+4
	ldrb	r3, [r3, r1]	@ zero_extendqisi2
	.loc 1 455 12
	eors	r3, r3, r2
	uxtb	r1, r3
	.loc 1 455 64
	ldrb	r3, [sp, #23]	@ zero_extendqisi2
	mov	r2, r3
	ldr	r3, .L12+8
	ldrb	r2, [r3, r2]	@ zero_extendqisi2
	.loc 1 455 7
	ldr	r3, [sp, #4]
	adds	r3, r3, #1
	.loc 1 455 12
	eors	r2, r2, r1
	uxtb	r2, r2
	strb	r2, [r3]
	.loc 1 456 14
	ldrb	r3, [sp, #8]	@ zero_extendqisi2
	mov	r2, r3
	ldr	r3, .L12+8
	ldrb	r2, [r3, r2]	@ zero_extendqisi2
	.loc 1 456 29
	ldrb	r3, [sp, #13]	@ zero_extendqisi2
	mov	r1, r3
	ldr	r3, .L12+8
	ldrb	r3, [r3, r1]	@ zero_extendqisi2
	.loc 1 456 12
	eors	r3, r3, r2
	uxtb	r2, r3
	.loc 1 456 44
	ldrb	r3, [sp, #18]	@ zero_extendqisi2
	mov	r1, r3
	ldr	r3, .L12
	ldrb	r3, [r3, r1]	@ zero_extendqisi2
	.loc 1 456 12
	eors	r3, r3, r2
	uxtb	r1, r3
	.loc 1 456 62
	ldrb	r3, [sp, #23]	@ zero_extendqisi2
	mov	r2, r3
	ldr	r3, .L12+4
	ldrb	r2, [r3, r2]	@ zero_extendqisi2
	.loc 1 456 7
	ldr	r3, [sp, #4]
	adds	r3, r3, #2
	.loc 1 456 12
	eors	r2, r2, r1
	uxtb	r2, r2
	strb	r2, [r3]
	.loc 1 457 14
	ldrb	r3, [sp, #8]	@ zero_extendqisi2
	mov	r2, r3
	ldr	r3, .L12+4
	ldrb	r2, [r3, r2]	@ zero_extendqisi2
	.loc 1 457 31
	ldrb	r3, [sp, #13]	@ zero_extendqisi2
	mov	r1, r3
	ldr	r3, .L12+8
	ldrb	r3, [r3, r1]	@ zero_extendqisi2
	.loc 1 457 12
	eors	r3, r3, r2
	uxtb	r2, r3
	.loc 1 457 46
	ldrb	r3, [sp, #18]	@ zero_extendqisi2
	mov	r1, r3
	ldr	r3, .L12+8
	ldrb	r3, [r3, r1]	@ zero_extendqisi2
	.loc 1 457 12
	eors	r3, r3, r2
	uxtb	r1, r3
	.loc 1 457 62
	ldrb	r3, [sp, #23]	@ zero_extendqisi2
	mov	r2, r3
	ldr	r3, .L12
	ldrb	r2, [r3, r2]	@ zero_extendqisi2
	.loc 1 457 7
	ldr	r3, [sp, #4]
	adds	r3, r3, #3
	.loc 1 457 12
	eors	r2, r2, r1
	uxtb	r2, r2
	strb	r2, [r3]
	.loc 1 459 14
	ldrb	r3, [sp, #12]	@ zero_extendqisi2
	mov	r2, r3
	ldr	r3, .L12
	ldrb	r2, [r3, r2]	@ zero_extendqisi2
	.loc 1 459 31
	ldrb	r3, [sp, #17]	@ zero_extendqisi2
	mov	r1, r3
	ldr	r3, .L12+4
	ldrb	r3, [r3, r1]	@ zero_extendqisi2
	.loc 1 459 12
	eors	r3, r3, r2
	uxtb	r2, r3
	.loc 1 459 48
	ldrb	r3, [sp, #22]	@ zero_extendqisi2
	mov	r1, r3
	ldr	r3, .L12+8
	ldrb	r3, [r3, r1]	@ zero_extendqisi2
	.loc 1 459 12
	eors	r3, r3, r2
	uxtb	r1, r3
	.loc 1 459 64
	ldrb	r3, [sp, #11]	@ zero_extendqisi2
	mov	r2, r3
	ldr	r3, .L12+8
	ldrb	r2, [r3, r2]	@ zero_extendqisi2
	.loc 1 459 7
	ldr	r3, [sp, #4]
	adds	r3, r3, #4
	.loc 1 459 12
	eors	r2, r2, r1
	uxtb	r2, r2
	strb	r2, [r3]
	.loc 1 460 14
	ldrb	r3, [sp, #12]	@ zero_extendqisi2
	mov	r2, r3
	ldr	r3, .L12+8
	ldrb	r2, [r3, r2]	@ zero_extendqisi2
	.loc 1 460 29
	ldrb	r3, [sp, #17]	@ zero_extendqisi2
	mov	r1, r3
	ldr	r3, .L12
	ldrb	r3, [r3, r1]	@ zero_extendqisi2
	.loc 1 460 12
	eors	r3, r3, r2
	uxtb	r2, r3
	.loc 1 460 46
	ldrb	r3, [sp, #22]	@ zero_extendqisi2
	mov	r1, r3
	ldr	r3, .L12+4
	ldrb	r3, [r3, r1]	@ zero_extendqisi2
	.loc 1 460 12
	eors	r3, r3, r2
	uxtb	r1, r3
	.loc 1 460 64
	ldrb	r3, [sp, #11]	@ zero_extendqisi2
	mov	r2, r3
	ldr	r3, .L12+8
	ldrb	r2, [r3, r2]	@ zero_extendqisi2
	.loc 1 460 7
	ldr	r3, [sp, #4]
	adds	r3, r3, #5
	.loc 1 460 12
	eors	r2, r2, r1
	uxtb	r2, r2
	strb	r2, [r3]
	.loc 1 461 14
	ldrb	r3, [sp, #12]	@ zero_extendqisi2
	mov	r2, r3
	ldr	r3, .L12+8
	ldrb	r2, [r3, r2]	@ zero_extendqisi2
	.loc 1 461 29
	ldrb	r3, [sp, #17]	@ zero_extendqisi2
	mov	r1, r3
	ldr	r3, .L12+8
	ldrb	r3, [r3, r1]	@ zero_extendqisi2
	.loc 1 461 12
	eors	r3, r3, r2
	uxtb	r2, r3
	.loc 1 461 44
	ldrb	r3, [sp, #22]	@ zero_extendqisi2
	mov	r1, r3
	ldr	r3, .L12
	ldrb	r3, [r3, r1]	@ zero_extendqisi2
	.loc 1 461 12
	eors	r3, r3, r2
	uxtb	r1, r3
	.loc 1 461 62
	ldrb	r3, [sp, #11]	@ zero_extendqisi2
	mov	r2, r3
	ldr	r3, .L12+4
	ldrb	r2, [r3, r2]	@ zero_extendqisi2
	.loc 1 461 7
	ldr	r3, [sp, #4]
	adds	r3, r3, #6
	.loc 1 461 12
	eors	r2, r2, r1
	uxtb	r2, r2
	strb	r2, [r3]
	.loc 1 462 14
	ldrb	r3, [sp, #12]	@ zero_extendqisi2
	mov	r2, r3
	ldr	r3, .L12+4
	ldrb	r2, [r3, r2]	@ zero_extendqisi2
	.loc 1 462 31
	ldrb	r3, [sp, #17]	@ zero_extendqisi2
	mov	r1, r3
	ldr	r3, .L12+8
	ldrb	r3, [r3, r1]	@ zero_extendqisi2
	.loc 1 462 12
	eors	r3, r3, r2
	uxtb	r2, r3
	.loc 1 462 46
	ldrb	r3, [sp, #22]	@ zero_extendqisi2
	mov	r1, r3
	ldr	r3, .L12+8
	ldrb	r3, [r3, r1]	@ zero_extendqisi2
	.loc 1 462 12
	eors	r3, r3, r2
	uxtb	r1, r3
	.loc 1 462 62
	ldrb	r3, [sp, #11]	@ zero_extendqisi2
	mov	r2, r3
	ldr	r3, .L12
	ldrb	r2, [r3, r2]	@ zero_extendqisi2
	.loc 1 462 7
	ldr	r3, [sp, #4]
	adds	r3, r3, #7
	.loc 1 462 12
	eors	r2, r2, r1
	uxtb	r2, r2
	strb	r2, [r3]
	.loc 1 464 14
	ldrb	r3, [sp, #16]	@ zero_extendqisi2
	mov	r2, r3
	ldr	r3, .L12
	ldrb	r2, [r3, r2]	@ zero_extendqisi2
	.loc 1 464 31
	ldrb	r3, [sp, #21]	@ zero_extendqisi2
	mov	r1, r3
	ldr	r3, .L12+4
	ldrb	r3, [r3, r1]	@ zero_extendqisi2
	.loc 1 464 12
	eors	r3, r3, r2
	uxtb	r2, r3
	.loc 1 464 49
	ldrb	r3, [sp, #10]	@ zero_extendqisi2
	mov	r1, r3
	ldr	r3, .L12+8
	ldrb	r3, [r3, r1]	@ zero_extendqisi2
	.loc 1 464 12
	eors	r3, r3, r2
	uxtb	r1, r3
	.loc 1 464 64
	ldrb	r3, [sp, #15]	@ zero_extendqisi2
	mov	r2, r3
	ldr	r3, .L12+8
	ldrb	r2, [r3, r2]	@ zero_extendqisi2
	.loc 1 464 7
	ldr	r3, [sp, #4]
	adds	r3, r3, #8
	.loc 1 464 12
	eors	r2, r2, r1
	uxtb	r2, r2
	strb	r2, [r3]
	.loc 1 465 14
	ldrb	r3, [sp, #16]	@ zero_extendqisi2
	mov	r2, r3
	ldr	r3, .L12+8
	ldrb	r2, [r3, r2]	@ zero_extendqisi2
	.loc 1 465 29
	ldrb	r3, [sp, #21]	@ zero_extendqisi2
	mov	r1, r3
	ldr	r3, .L12
	ldrb	r3, [r3, r1]	@ zero_extendqisi2
	.loc 1 465 12
	eors	r3, r3, r2
	uxtb	r2, r3
	.loc 1 465 47
	ldrb	r3, [sp, #10]	@ zero_extendqisi2
	mov	r1, r3
	ldr	r3, .L12+4
	ldrb	r3, [r3, r1]	@ zero_extendqisi2
	.loc 1 465 12
	eors	r3, r3, r2
	uxtb	r1, r3
	.loc 1 465 64
	ldrb	r3, [sp, #15]	@ zero_extendqisi2
	mov	r2, r3
	ldr	r3, .L12+8
	ldrb	r2, [r3, r2]	@ zero_extendqisi2
	.loc 1 465 7
	ldr	r3, [sp, #4]
	adds	r3, r3, #9
	.loc 1 465 12
	eors	r2, r2, r1
	uxtb	r2, r2
	strb	r2, [r3]
	.loc 1 466 14
	ldrb	r3, [sp, #16]	@ zero_extendqisi2
	mov	r2, r3
	ldr	r3, .L12+8
	ldrb	r2, [r3, r2]	@ zero_extendqisi2
	.loc 1 466 29
	ldrb	r3, [sp, #21]	@ zero_extendqisi2
	mov	r1, r3
	ldr	r3, .L12+8
	ldrb	r3, [r3, r1]	@ zero_extendqisi2
	.loc 1 466 12
	eors	r3, r3, r2
	uxtb	r2, r3
	.loc 1 466 45
	ldrb	r3, [sp, #10]	@ zero_extendqisi2
	mov	r1, r3
	ldr	r3, .L12
	ldrb	r3, [r3, r1]	@ zero_extendqisi2
	.loc 1 466 12
	eors	r3, r3, r2
	uxtb	r1, r3
	.loc 1 466 62
	ldrb	r3, [sp, #15]	@ zero_extendqisi2
	mov	r2, r3
	ldr	r3, .L12+4
	ldrb	r2, [r3, r2]	@ zero_extendqisi2
	.loc 1 466 7
	ldr	r3, [sp, #4]
	adds	r3, r3, #10
	.loc 1 466 12
	eors	r2, r2, r1
	uxtb	r2, r2
	strb	r2, [r3]
	.loc 1 467 14
	ldrb	r3, [sp, #16]	@ zero_extendqisi2
	mov	r2, r3
	ldr	r3, .L12+4
	ldrb	r2, [r3, r2]	@ zero_extendqisi2
	.loc 1 467 31
	ldrb	r3, [sp, #21]	@ zero_extendqisi2
	mov	r1, r3
	ldr	r3, .L12+8
	ldrb	r3, [r3, r1]	@ zero_extendqisi2
	.loc 1 467 12
	eors	r3, r3, r2
	uxtb	r2, r3
	.loc 1 467 47
	ldrb	r3, [sp, #10]	@ zero_extendqisi2
	mov	r1, r3
	ldr	r3, .L12+8
	ldrb	r3, [r3, r1]	@ zero_extendqisi2
	.loc 1 467 12
	eors	r3, r3, r2
	uxtb	r1, r3
	.loc 1 467 62
	ldrb	r3, [sp, #15]	@ zero_extendqisi2
	mov	r2, r3
	ldr	r3, .L12
	ldrb	r2, [r3, r2]	@ zero_extendqisi2
	.loc 1 467 7
	ldr	r3, [sp, #4]
	adds	r3, r3, #11
	.loc 1 467 12
	eors	r2, r2, r1
	uxtb	r2, r2
	strb	r2, [r3]
	.loc 1 469 14
	ldrb	r3, [sp, #20]	@ zero_extendqisi2
	mov	r2, r3
	ldr	r3, .L12
	ldrb	r2, [r3, r2]	@ zero_extendqisi2
	.loc 1 469 32
	ldrb	r3, [sp, #9]	@ zero_extendqisi2
	mov	r1, r3
	ldr	r3, .L12+4
	ldrb	r3, [r3, r1]	@ zero_extendqisi2
	.loc 1 469 12
	eors	r3, r3, r2
	uxtb	r2, r3
	.loc 1 469 49
	ldrb	r3, [sp, #14]	@ zero_extendqisi2
	mov	r1, r3
	b	.L13
.L14:
	.align	2
.L12:
	.word	gfm2_sbox
	.word	gfm3_sbox
	.word	sbox
.L13:
	ldr	r3, .L15
	ldrb	r3, [r3, r1]	@ zero_extendqisi2
	.loc 1 469 12
	eors	r3, r3, r2
	uxtb	r1, r3
	.loc 1 469 64
	ldrb	r3, [sp, #19]	@ zero_extendqisi2
	mov	r2, r3
	ldr	r3, .L15
	ldrb	r2, [r3, r2]	@ zero_extendqisi2
	.loc 1 469 7
	ldr	r3, [sp, #4]
	adds	r3, r3, #12
	.loc 1 469 12
	eors	r2, r2, r1
	uxtb	r2, r2
	strb	r2, [r3]
	.loc 1 470 14
	ldrb	r3, [sp, #20]	@ zero_extendqisi2
	mov	r2, r3
	ldr	r3, .L15
	ldrb	r2, [r3, r2]	@ zero_extendqisi2
	.loc 1 470 30
	ldrb	r3, [sp, #9]	@ zero_extendqisi2
	mov	r1, r3
	ldr	r3, .L15+4
	ldrb	r3, [r3, r1]	@ zero_extendqisi2
	.loc 1 470 12
	eors	r3, r3, r2
	uxtb	r2, r3
	.loc 1 470 47
	ldrb	r3, [sp, #14]	@ zero_extendqisi2
	mov	r1, r3
	ldr	r3, .L15+8
	ldrb	r3, [r3, r1]	@ zero_extendqisi2
	.loc 1 470 12
	eors	r3, r3, r2
	uxtb	r1, r3
	.loc 1 470 64
	ldrb	r3, [sp, #19]	@ zero_extendqisi2
	mov	r2, r3
	ldr	r3, .L15
	ldrb	r2, [r3, r2]	@ zero_extendqisi2
	.loc 1 470 7
	ldr	r3, [sp, #4]
	adds	r3, r3, #13
	.loc 1 470 12
	eors	r2, r2, r1
	uxtb	r2, r2
	strb	r2, [r3]
	.loc 1 471 14
	ldrb	r3, [sp, #20]	@ zero_extendqisi2
	mov	r2, r3
	ldr	r3, .L15
	ldrb	r2, [r3, r2]	@ zero_extendqisi2
	.loc 1 471 30
	ldrb	r3, [sp, #9]	@ zero_extendqisi2
	mov	r1, r3
	ldr	r3, .L15
	ldrb	r3, [r3, r1]	@ zero_extendqisi2
	.loc 1 471 12
	eors	r3, r3, r2
	uxtb	r2, r3
	.loc 1 471 45
	ldrb	r3, [sp, #14]	@ zero_extendqisi2
	mov	r1, r3
	ldr	r3, .L15+4
	ldrb	r3, [r3, r1]	@ zero_extendqisi2
	.loc 1 471 12
	eors	r3, r3, r2
	uxtb	r1, r3
	.loc 1 471 62
	ldrb	r3, [sp, #19]	@ zero_extendqisi2
	mov	r2, r3
	ldr	r3, .L15+8
	ldrb	r2, [r3, r2]	@ zero_extendqisi2
	.loc 1 471 7
	ldr	r3, [sp, #4]
	adds	r3, r3, #14
	.loc 1 471 12
	eors	r2, r2, r1
	uxtb	r2, r2
	strb	r2, [r3]
	.loc 1 472 14
	ldrb	r3, [sp, #20]	@ zero_extendqisi2
	mov	r2, r3
	ldr	r3, .L15+8
	ldrb	r2, [r3, r2]	@ zero_extendqisi2
	.loc 1 472 32
	ldrb	r3, [sp, #9]	@ zero_extendqisi2
	mov	r1, r3
	ldr	r3, .L15
	ldrb	r3, [r3, r1]	@ zero_extendqisi2
	.loc 1 472 12
	eors	r3, r3, r2
	uxtb	r2, r3
	.loc 1 472 47
	ldrb	r3, [sp, #14]	@ zero_extendqisi2
	mov	r1, r3
	ldr	r3, .L15
	ldrb	r3, [r3, r1]	@ zero_extendqisi2
	.loc 1 472 12
	eors	r3, r3, r2
	uxtb	r1, r3
	.loc 1 472 62
	ldrb	r3, [sp, #19]	@ zero_extendqisi2
	mov	r2, r3
	ldr	r3, .L15+4
	ldrb	r2, [r3, r2]	@ zero_extendqisi2
	.loc 1 472 7
	ldr	r3, [sp, #4]
	adds	r3, r3, #15
	.loc 1 472 12
	eors	r2, r2, r1
	uxtb	r2, r2
	strb	r2, [r3]
	.loc 1 473 3
	nop
	add	sp, sp, #28
.LCFI15:
	@ sp needed
	ldr	pc, [sp], #4
.L16:
	.align	2
.L15:
	.word	sbox
	.word	gfm2_sbox
	.word	gfm3_sbox
.LFE6:
	.size	mix_sub_columns, .-mix_sub_columns
	.section	.text.aes_set_key,"ax",%progbits
	.align	1
	.global	aes_set_key
	.syntax unified
	.thumb
	.thumb_func
	.fpu fpv4-sp-d16
	.type	aes_set_key, %function
aes_set_key:
.LFB7:
	.loc 1 513 1
	@ args = 0, pretend = 0, frame = 24
	@ frame_needed = 0, uses_anonymous_args = 0
	push	{lr}
.LCFI16:
	sub	sp, sp, #28
.LCFI17:
	str	r0, [sp, #12]
	mov	r3, r1
	str	r2, [sp, #4]
	strb	r3, [sp, #11]
	.loc 1 516 5
	ldrb	r3, [sp, #11]	@ zero_extendqisi2
	subs	r3, r3, #16
	cmp	r3, #16
	ite	hi
	movhi	r2, #1
	movls	r2, #0
	uxtb	r2, r2
	cmp	r2, #0
	bne	.L18
	movs	r2, #1
	lsl	r3, r2, r3
	and	r3, r3, #16843009
	bic	r3, r3, #16777216
	cmp	r3, #0
	ite	ne
	movne	r3, #1
	moveq	r3, #0
	uxtb	r3, r3
	cmp	r3, #0
	bne	.L26
.L18:
	.loc 1 523 18
	ldr	r3, [sp, #4]
	movs	r2, #0
	strb	r2, [r3, #240]
	.loc 1 524 16
	movs	r3, #255
	b	.L20
.L26:
	.loc 1 521 9
	nop
	.loc 1 526 5
	ldr	r3, [sp, #4]
	ldrb	r2, [sp, #11]	@ zero_extendqisi2
	ldr	r1, [sp, #12]
	mov	r0, r3
	bl	copy_block_nn
	.loc 1 527 18
	ldrb	r3, [sp, #11]
	adds	r3, r3, #28
	uxtb	r3, r3
	.loc 1 527 8
	lsls	r3, r3, #2
	strb	r3, [sp, #17]
	.loc 1 528 26
	ldrb	r3, [sp, #17]	@ zero_extendqisi2
	lsrs	r3, r3, #4
	uxtb	r3, r3
	subs	r3, r3, #1
	uxtb	r2, r3
	.loc 1 528 14
	ldr	r3, [sp, #4]
	strb	r2, [r3, #240]
	.loc 1 529 13
	ldrb	r3, [sp, #11]
	strb	r3, [sp, #23]
	.loc 1 529 26
	movs	r3, #1
	strb	r3, [sp, #22]
	.loc 1 529 5
	b	.L21
.L24:
.LBB2:
	.loc 1 532 27
	ldrb	r3, [sp, #23]	@ zero_extendqisi2
	subs	r3, r3, #4
	.loc 1 532 12
	ldr	r2, [sp, #4]
	ldrb	r3, [r2, r3]
	strb	r3, [sp, #21]
	.loc 1 533 27
	ldrb	r3, [sp, #23]	@ zero_extendqisi2
	subs	r3, r3, #3
	.loc 1 533 12
	ldr	r2, [sp, #4]
	ldrb	r3, [r2, r3]
	strb	r3, [sp, #20]
	.loc 1 534 27
	ldrb	r3, [sp, #23]	@ zero_extendqisi2
	subs	r3, r3, #2
	.loc 1 534 12
	ldr	r2, [sp, #4]
	ldrb	r3, [r2, r3]
	strb	r3, [sp, #19]
	.loc 1 535 27
	ldrb	r3, [sp, #23]	@ zero_extendqisi2
	subs	r3, r3, #1
	.loc 1 535 12
	ldr	r2, [sp, #4]
	ldrb	r3, [r2, r3]
	strb	r3, [sp, #18]
	.loc 1 536 25
	ldrb	r3, [sp, #23]	@ zero_extendqisi2
	ldrb	r2, [sp, #11]	@ zero_extendqisi2
	udiv	r1, r3, r2
	mul	r2, r2, r1
	subs	r3, r3, r2
	uxtb	r3, r3
	.loc 1 536 11
	cmp	r3, #0
	bne	.L22
	.loc 1 538 16
	ldrb	r3, [sp, #21]
	strb	r3, [sp, #16]
	.loc 1 539 18
	ldrb	r3, [sp, #20]	@ zero_extendqisi2
	ldr	r2, .L27
	ldrb	r2, [r2, r3]	@ zero_extendqisi2
	.loc 1 539 16
	ldrb	r3, [sp, #22]
	eors	r3, r3, r2
	strb	r3, [sp, #21]
	.loc 1 540 18
	ldrb	r3, [sp, #19]	@ zero_extendqisi2
	.loc 1 540 16
	ldr	r2, .L27
	ldrb	r3, [r2, r3]
	strb	r3, [sp, #20]
	.loc 1 541 18
	ldrb	r3, [sp, #18]	@ zero_extendqisi2
	.loc 1 541 16
	ldr	r2, .L27
	ldrb	r3, [r2, r3]
	strb	r3, [sp, #19]
	.loc 1 542 18
	ldrb	r3, [sp, #16]	@ zero_extendqisi2
	.loc 1 542 16
	ldr	r2, .L27
	ldrb	r3, [r2, r3]
	strb	r3, [sp, #18]
	.loc 1 543 18
	ldrb	r3, [sp, #22]	@ zero_extendqisi2
	lsls	r3, r3, #1
	sxtb	r2, r3
	ldrb	r3, [sp, #22]	@ zero_extendqisi2
	lsrs	r3, r3, #7
	uxtb	r3, r3
	mov	r1, r3
	lsls	r1, r1, #1
	add	r3, r3, r1
	mov	r1, r3
	lsls	r0, r1, #3
	mov	r1, r3
	mov	r3, r0
	add	r3, r3, r1
	uxtb	r3, r3
	sxtb	r3, r3
	eors	r3, r3, r2
	sxtb	r3, r3
	.loc 1 543 16
	strb	r3, [sp, #22]
	b	.L23
.L22:
	.loc 1 545 16
	ldrb	r3, [sp, #11]	@ zero_extendqisi2
	cmp	r3, #24
	bls	.L23
	.loc 1 545 45 discriminator 1
	ldrb	r3, [sp, #23]	@ zero_extendqisi2
	ldrb	r2, [sp, #11]	@ zero_extendqisi2
	udiv	r1, r3, r2
	mul	r2, r2, r1
	subs	r3, r3, r2
	uxtb	r3, r3
	.loc 1 545 30 discriminator 1
	cmp	r3, #16
	bne	.L23
	.loc 1 547 18
	ldrb	r3, [sp, #21]	@ zero_extendqisi2
	.loc 1 547 16
	ldr	r2, .L27
	ldrb	r3, [r2, r3]
	strb	r3, [sp, #21]
	.loc 1 548 18
	ldrb	r3, [sp, #20]	@ zero_extendqisi2
	.loc 1 548 16
	ldr	r2, .L27
	ldrb	r3, [r2, r3]
	strb	r3, [sp, #20]
	.loc 1 549 18
	ldrb	r3, [sp, #19]	@ zero_extendqisi2
	.loc 1 549 16
	ldr	r2, .L27
	ldrb	r3, [r2, r3]
	strb	r3, [sp, #19]
	.loc 1 550 18
	ldrb	r3, [sp, #18]	@ zero_extendqisi2
	.loc 1 550 16
	ldr	r2, .L27
	ldrb	r3, [r2, r3]
	strb	r3, [sp, #18]
.L23:
	.loc 1 552 12 discriminator 2
	ldrb	r2, [sp, #23]
	ldrb	r3, [sp, #11]
	subs	r3, r2, r3
	strb	r3, [sp, #16]
	.loc 1 553 42 discriminator 2
	ldrb	r3, [sp, #16]	@ zero_extendqisi2
	.loc 1 553 38 discriminator 2
	ldr	r2, [sp, #4]
	ldrb	r1, [r2, r3]	@ zero_extendqisi2
	.loc 1 553 22 discriminator 2
	ldrb	r3, [sp, #23]	@ zero_extendqisi2
	.loc 1 553 27 discriminator 2
	ldrb	r2, [sp, #21]
	eors	r2, r2, r1
	uxtb	r1, r2
	ldr	r2, [sp, #4]
	strb	r1, [r2, r3]
	.loc 1 554 42 discriminator 2
	ldrb	r3, [sp, #16]	@ zero_extendqisi2
	adds	r3, r3, #1
	.loc 1 554 38 discriminator 2
	ldr	r2, [sp, #4]
	ldrb	r1, [r2, r3]	@ zero_extendqisi2
	.loc 1 554 22 discriminator 2
	ldrb	r3, [sp, #23]	@ zero_extendqisi2
	adds	r3, r3, #1
	.loc 1 554 27 discriminator 2
	ldrb	r2, [sp, #20]
	eors	r2, r2, r1
	uxtb	r1, r2
	ldr	r2, [sp, #4]
	strb	r1, [r2, r3]
	.loc 1 555 42 discriminator 2
	ldrb	r3, [sp, #16]	@ zero_extendqisi2
	adds	r3, r3, #2
	.loc 1 555 38 discriminator 2
	ldr	r2, [sp, #4]
	ldrb	r1, [r2, r3]	@ zero_extendqisi2
	.loc 1 555 22 discriminator 2
	ldrb	r3, [sp, #23]	@ zero_extendqisi2
	adds	r3, r3, #2
	.loc 1 555 27 discriminator 2
	ldrb	r2, [sp, #19]
	eors	r2, r2, r1
	uxtb	r1, r2
	ldr	r2, [sp, #4]
	strb	r1, [r2, r3]
	.loc 1 556 42 discriminator 2
	ldrb	r3, [sp, #16]	@ zero_extendqisi2
	adds	r3, r3, #3
	.loc 1 556 38 discriminator 2
	ldr	r2, [sp, #4]
	ldrb	r1, [r2, r3]	@ zero_extendqisi2
	.loc 1 556 22 discriminator 2
	ldrb	r3, [sp, #23]	@ zero_extendqisi2
	adds	r3, r3, #3
	.loc 1 556 27 discriminator 2
	ldrb	r2, [sp, #18]
	eors	r2, r2, r1
	uxtb	r1, r2
	ldr	r2, [sp, #4]
	strb	r1, [r2, r3]
.LBE2:
	.loc 1 529 43 discriminator 2
	ldrb	r3, [sp, #23]
	adds	r3, r3, #4
	strb	r3, [sp, #23]
.L21:
	.loc 1 529 5 discriminator 1
	ldrb	r2, [sp, #23]	@ zero_extendqisi2
	ldrb	r3, [sp, #17]	@ zero_extendqisi2
	cmp	r2, r3
	bcc	.L24
	.loc 1 558 12
	movs	r3, #0
.L20:
	.loc 1 559 1
	mov	r0, r3
	add	sp, sp, #28
.LCFI18:
	@ sp needed
	ldr	pc, [sp], #4
.L28:
	.align	2
.L27:
	.word	sbox
.LFE7:
	.size	aes_set_key, .-aes_set_key
	.section	.text.aes_encrypt,"ax",%progbits
	.align	1
	.global	aes_encrypt
	.syntax unified
	.thumb
	.thumb_func
	.fpu fpv4-sp-d16
	.type	aes_encrypt, %function
aes_encrypt:
.LFB8:
	.loc 1 568 1
	@ args = 0, pretend = 0, frame = 40
	@ frame_needed = 0, uses_anonymous_args = 0
	push	{lr}
.LCFI19:
	sub	sp, sp, #44
.LCFI20:
	str	r0, [sp, #12]
	str	r1, [sp, #8]
	str	r2, [sp, #4]
	.loc 1 569 12
	ldr	r3, [sp, #4]
	ldrb	r3, [r3, #240]	@ zero_extendqisi2
	.loc 1 569 7
	cmp	r3, #0
	beq	.L30
.LBB3:
	.loc 1 572 34
	ldr	r2, [sp, #4]
	.loc 1 572 9
	add	r3, sp, #20
	ldr	r1, [sp, #12]
	mov	r0, r3
	bl	copy_and_key
	.loc 1 574 16
	movs	r3, #1
	strb	r3, [sp, #39]
	.loc 1 574 9
	b	.L31
.L32:
	.loc 1 577 13 discriminator 3
	add	r3, sp, #20
	mov	r0, r3
	bl	mix_sub_columns
	.loc 1 578 32 discriminator 3
	ldr	r3, [sp, #4]
	.loc 1 578 46 discriminator 3
	ldrb	r2, [sp, #39]	@ zero_extendqisi2
	lsls	r2, r2, #4
	.loc 1 578 13 discriminator 3
	add	r2, r2, r3
	add	r3, sp, #20
	mov	r1, r2
	mov	r0, r3
	bl	add_round_key
	.loc 1 574 37 discriminator 3
	ldrb	r3, [sp, #39]
	adds	r3, r3, #1
	strb	r3, [sp, #39]
.L31:
	.loc 1 574 29 discriminator 1
	ldr	r3, [sp, #4]
	ldrb	r3, [r3, #240]	@ zero_extendqisi2
	.loc 1 574 9 discriminator 1
	ldrb	r2, [sp, #39]	@ zero_extendqisi2
	cmp	r2, r3
	bcc	.L32
	.loc 1 586 9
	add	r3, sp, #20
	mov	r0, r3
	bl	shift_sub_rows
	.loc 1 587 32
	ldr	r3, [sp, #4]
	.loc 1 587 46
	ldrb	r2, [sp, #39]	@ zero_extendqisi2
	lsls	r2, r2, #4
	.loc 1 587 9
	add	r2, r2, r3
	add	r3, sp, #20
	mov	r1, r3
	ldr	r0, [sp, #8]
	bl	copy_and_key
.LBE3:
	.loc 1 591 12
	movs	r3, #0
	b	.L34
.L30:
	.loc 1 590 16
	movs	r3, #255
.L34:
	.loc 1 592 1
	mov	r0, r3
	add	sp, sp, #44
.LCFI21:
	@ sp needed
	ldr	pc, [sp], #4
.LFE8:
	.size	aes_encrypt, .-aes_encrypt
	.section	.text.aes_cbc_encrypt,"ax",%progbits
	.align	1
	.global	aes_cbc_encrypt
	.syntax unified
	.thumb
	.thumb_func
	.fpu fpv4-sp-d16
	.type	aes_cbc_encrypt, %function
aes_cbc_encrypt:
.LFB9:
	.loc 1 598 1
	@ args = 4, pretend = 0, frame = 16
	@ frame_needed = 0, uses_anonymous_args = 0
	push	{lr}
.LCFI22:
	sub	sp, sp, #20
.LCFI23:
	str	r0, [sp, #12]
	str	r1, [sp, #8]
	str	r2, [sp, #4]
	str	r3, [sp]
	.loc 1 600 10
	b	.L36
.L39:
	.loc 1 602 9
	ldr	r1, [sp, #12]
	ldr	r0, [sp]
	bl	xor_block
	.loc 1 603 12
	ldr	r2, [sp, #24]
	ldr	r1, [sp]
	ldr	r0, [sp]
	bl	aes_encrypt
	mov	r3, r0
	.loc 1 603 11
	cmp	r3, #0
	beq	.L37
	.loc 1 604 20
	movs	r3, #1
	b	.L38
.L37:
	.loc 1 606 9
	ldr	r1, [sp]
	ldr	r0, [sp, #8]
	bl	copy_block
	.loc 1 607 12
	ldr	r3, [sp, #12]
	adds	r3, r3, #16
	str	r3, [sp, #12]
	.loc 1 608 13
	ldr	r3, [sp, #8]
	adds	r3, r3, #16
	str	r3, [sp, #8]
.L36:
	.loc 1 600 18
	ldr	r3, [sp, #4]
	subs	r2, r3, #1
	str	r2, [sp, #4]
	.loc 1 600 10
	cmp	r3, #0
	bne	.L39
	.loc 1 610 12
	movs	r3, #0
.L38:
	.loc 1 611 1
	mov	r0, r3
	add	sp, sp, #20
.LCFI24:
	@ sp needed
	ldr	pc, [sp], #4
.LFE9:
	.size	aes_cbc_encrypt, .-aes_cbc_encrypt
	.section	.debug_frame,"",%progbits
.Lframe0:
	.4byte	.LECIE0-.LSCIE0
.LSCIE0:
	.4byte	0xffffffff
	.byte	0x3
	.ascii	"\000"
	.uleb128 0x1
	.sleb128 -4
	.uleb128 0xe
	.byte	0xc
	.uleb128 0xd
	.uleb128 0
	.align	2
.LECIE0:
.LSFDE0:
	.4byte	.LEFDE0-.LASFDE0
.LASFDE0:
	.4byte	.Lframe0
	.4byte	.LFB0
	.4byte	.LFE0-.LFB0
	.byte	0x4
	.4byte	.LCFI0-.LFB0
	.byte	0xe
	.uleb128 0x8
	.byte	0x4
	.4byte	.LCFI1-.LCFI0
	.byte	0xe
	.uleb128 0
	.align	2
.LEFDE0:
.LSFDE2:
	.4byte	.LEFDE2-.LASFDE2
.LASFDE2:
	.4byte	.Lframe0
	.4byte	.LFB1
	.4byte	.LFE1-.LFB1
	.byte	0x4
	.4byte	.LCFI2-.LFB1
	.byte	0xe
	.uleb128 0x10
	.byte	0x4
	.4byte	.LCFI3-.LCFI2
	.byte	0xe
	.uleb128 0
	.align	2
.LEFDE2:
.LSFDE4:
	.4byte	.LEFDE4-.LASFDE4
.LASFDE4:
	.4byte	.Lframe0
	.4byte	.LFB2
	.4byte	.LFE2-.LFB2
	.byte	0x4
	.4byte	.LCFI4-.LFB2
	.byte	0xe
	.uleb128 0x8
	.byte	0x4
	.4byte	.LCFI5-.LCFI4
	.byte	0xe
	.uleb128 0
	.align	2
.LEFDE4:
.LSFDE6:
	.4byte	.LEFDE6-.LASFDE6
.LASFDE6:
	.4byte	.Lframe0
	.4byte	.LFB3
	.4byte	.LFE3-.LFB3
	.byte	0x4
	.4byte	.LCFI6-.LFB3
	.byte	0xe
	.uleb128 0x10
	.byte	0x4
	.4byte	.LCFI7-.LCFI6
	.byte	0xe
	.uleb128 0
	.align	2
.LEFDE6:
.LSFDE8:
	.4byte	.LEFDE8-.LASFDE8
.LASFDE8:
	.4byte	.Lframe0
	.4byte	.LFB4
	.4byte	.LFE4-.LFB4
	.byte	0x4
	.4byte	.LCFI8-.LFB4
	.byte	0xe
	.uleb128 0x4
	.byte	0x8e
	.uleb128 0x1
	.byte	0x4
	.4byte	.LCFI9-.LCFI8
	.byte	0xe
	.uleb128 0x10
	.byte	0x4
	.4byte	.LCFI10-.LCFI9
	.byte	0xe
	.uleb128 0x4
	.align	2
.LEFDE8:
.LSFDE10:
	.4byte	.LEFDE10-.LASFDE10
.LASFDE10:
	.4byte	.Lframe0
	.4byte	.LFB5
	.4byte	.LFE5-.LFB5
	.byte	0x4
	.4byte	.LCFI11-.LFB5
	.byte	0xe
	.uleb128 0x10
	.byte	0x4
	.4byte	.LCFI12-.LCFI11
	.byte	0xe
	.uleb128 0
	.align	2
.LEFDE10:
.LSFDE12:
	.4byte	.LEFDE12-.LASFDE12
.LASFDE12:
	.4byte	.Lframe0
	.4byte	.LFB6
	.4byte	.LFE6-.LFB6
	.byte	0x4
	.4byte	.LCFI13-.LFB6
	.byte	0xe
	.uleb128 0x4
	.byte	0x8e
	.uleb128 0x1
	.byte	0x4
	.4byte	.LCFI14-.LCFI13
	.byte	0xe
	.uleb128 0x20
	.byte	0x4
	.4byte	.LCFI15-.LCFI14
	.byte	0xe
	.uleb128 0x4
	.align	2
.LEFDE12:
.LSFDE14:
	.4byte	.LEFDE14-.LASFDE14
.LASFDE14:
	.4byte	.Lframe0
	.4byte	.LFB7
	.4byte	.LFE7-.LFB7
	.byte	0x4
	.4byte	.LCFI16-.LFB7
	.byte	0xe
	.uleb128 0x4
	.byte	0x8e
	.uleb128 0x1
	.byte	0x4
	.4byte	.LCFI17-.LCFI16
	.byte	0xe
	.uleb128 0x20
	.byte	0x4
	.4byte	.LCFI18-.LCFI17
	.byte	0xe
	.uleb128 0x4
	.align	2
.LEFDE14:
.LSFDE16:
	.4byte	.LEFDE16-.LASFDE16
.LASFDE16:
	.4byte	.Lframe0
	.4byte	.LFB8
	.4byte	.LFE8-.LFB8
	.byte	0x4
	.4byte	.LCFI19-.LFB8
	.byte	0xe
	.uleb128 0x4
	.byte	0x8e
	.uleb128 0x1
	.byte	0x4
	.4byte	.LCFI20-.LCFI19
	.byte	0xe
	.uleb128 0x30
	.byte	0x4
	.4byte	.LCFI21-.LCFI20
	.byte	0xe
	.uleb128 0x4
	.align	2
.LEFDE16:
.LSFDE18:
	.4byte	.LEFDE18-.LASFDE18
.LASFDE18:
	.4byte	.Lframe0
	.4byte	.LFB9
	.4byte	.LFE9-.LFB9
	.byte	0x4
	.4byte	.LCFI22-.LFB9
	.byte	0xe
	.uleb128 0x4
	.byte	0x8e
	.uleb128 0x1
	.byte	0x4
	.4byte	.LCFI23-.LCFI22
	.byte	0xe
	.uleb128 0x18
	.byte	0x4
	.4byte	.LCFI24-.LCFI23
	.byte	0xe
	.uleb128 0x4
	.align	2
.LEFDE18:
	.text
.Letext0:
	.file 2 "D:\\Low-Power-IPS-Hardware\\BLE-Projects\\BLE_Scanner\\LoRa_Lib\\crypto\\aes.h"
	.file 3 "C:/Users/mone/ncs/v1.3.0/toolchain/segger_embedded_studio/include/stdint.h"